target datalayout = "e-m:e-p270:32:32-p271:32:32-p272:64:64-i64:64-i128:128-f80:128-n8:16:32:64-S128"
target triple = "x86_64-pc-linux-gnu"

%"class.Json::Value" = type { %"union.Json::Value::ValueHolder", %struct.anon, %"class.Json::Value::Comments", i64, i64 }
%"union.Json::Value::ValueHolder" = type { i64 }
%struct.anon = type { i16, [2 x i8] }
%"class.Json::Value::Comments" = type { %"class.std::unique_ptr" }
%"class.std::unique_ptr" = type { %"struct.std::__uniq_ptr_data" }
%"struct.std::__uniq_ptr_data" = type { %"class.std::__uniq_ptr_impl" }
%"class.std::__uniq_ptr_impl" = type { %"class.std::tuple" }
%"class.std::tuple" = type { %"struct.std::_Tuple_impl" }
%"struct.std::_Tuple_impl" = type { %"struct.std::_Head_base.10" }
%"struct.std::_Head_base.10" = type { ptr }
%"class.Json::OurReader::Token" = type { i32, ptr, ptr }

; Function Attrs: mustprogress uwtable
define dso_local noundef zeroext i1 @_ZN4Json9OurReader12decodeNumberERNS0_5TokenERNS_5ValueE(ptr noundef nonnull align 8 dereferenceable(297) %0, ptr noundef nonnull align 8 dereferenceable(24) %1, ptr noundef nonnull align 8 dereferenceable(40) %2) #5 align 2 {
  %4 = alloca i1, align 1
  %5 = alloca ptr, align 8
  %6 = alloca ptr, align 8
  %7 = alloca ptr, align 8
  %8 = alloca ptr, align 8
  %9 = alloca i8, align 1
  %10 = alloca i64, align 8
  %11 = alloca i32, align 4
  %12 = alloca i64, align 8
  %13 = alloca i8, align 1
  %14 = alloca i32, align 4
  %15 = alloca i32, align 4
  %16 = alloca %"class.Json::Value", align 8
  %17 = alloca %"class.Json::Value", align 8
  %18 = alloca %"class.Json::Value", align 8
  store ptr %0, ptr %5, align 8
  store ptr %1, ptr %6, align 8
  store ptr %2, ptr %7, align 8
  %19 = load ptr, ptr %5, align 8
  %20 = load ptr, ptr %6, align 8
  %21 = getelementptr inbounds %"class.Json::OurReader::Token", ptr %20, i32 0, i32 1
  %22 = load ptr, ptr %21, align 8
  store ptr %22, ptr %8, align 8
  %23 = load ptr, ptr %8, align 8
  %24 = load i8, ptr %23, align 1
  %25 = sext i8 %24 to i32
  %26 = icmp eq i32 %25, 45
  %27 = zext i1 %26 to i8
  store i8 %27, ptr %9, align 1
  %28 = load i8, ptr %9, align 1
  %29 = trunc i8 %28 to i1
  br i1 %29, label %30, label %33

30:                                               ; preds = %3
  %31 = load ptr, ptr %8, align 8
  %32 = getelementptr inbounds i8, ptr %31, i32 1
  store ptr %32, ptr %8, align 8
  br label %33

33:                                               ; preds = %30, %3
  %34 = load i8, ptr %9, align 1
  %35 = trunc i8 %34 to i1
  %36 = select i1 %35, i64 922337203685477580, i64 1844674407370955161
  store i64 %36, ptr %10, align 8
  %37 = load i8, ptr %9, align 1
  %38 = trunc i8 %37 to i1
  %39 = select i1 %38, i32 8, i32 5
  store i32 %39, ptr %11, align 4
  store i64 0, ptr %12, align 8
  br label %40

40:                                               ; preds = %87, %33
  %41 = load ptr, ptr %8, align 8
  %42 = load ptr, ptr %6, align 8
  %43 = getelementptr inbounds %"class.Json::OurReader::Token", ptr %42, i32 0, i32 2
  %44 = load ptr, ptr %43, align 8
  %45 = icmp ult ptr %41, %44
  br i1 %45, label %46, label %93

46:                                               ; preds = %40
  %47 = load ptr, ptr %8, align 8
  %48 = getelementptr inbounds i8, ptr %47, i32 1
  store ptr %48, ptr %8, align 8
  %49 = load i8, ptr %47, align 1
  store i8 %49, ptr %13, align 1
  %50 = load i8, ptr %13, align 1
  %51 = sext i8 %50 to i32
  %52 = icmp slt i32 %51, 48
  br i1 %52, label %57, label %53

53:                                               ; preds = %46
  %54 = load i8, ptr %13, align 1
  %55 = sext i8 %54 to i32
  %56 = icmp sgt i32 %55, 57
  br i1 %56, label %57, label %61

57:                                               ; preds = %53, %46
  %58 = load ptr, ptr %6, align 8
  %59 = load ptr, ptr %7, align 8
  %60 = call noundef zeroext i1 @_ZN4Json9OurReader12decodeDoubleERNS0_5TokenERNS_5ValueE(ptr noundef nonnull align 8 dereferenceable(297) %19, ptr noundef nonnull align 8 dereferenceable(24) %58, ptr noundef nonnull align 8 dereferenceable(40) %59)
  store i1 %60, ptr %4, align 1
  br label %122

61:                                               ; preds = %53
  %62 = load i8, ptr %13, align 1
  %63 = sext i8 %62 to i32
  %64 = sub nsw i32 %63, 48
  store i32 %64, ptr %14, align 4
  %65 = load i64, ptr %12, align 8
  %66 = load i64, ptr %10, align 8
  %67 = icmp uge i64 %65, %66
  br i1 %67, label %68, label %87

68:                                               ; preds = %61
  %69 = load i64, ptr %12, align 8
  %70 = load i64, ptr %10, align 8
  %71 = icmp ugt i64 %69, %70
  br i1 %71, label %82, label %72

72:                                               ; preds = %68
  %73 = load ptr, ptr %8, align 8
  %74 = load ptr, ptr %6, align 8
  %75 = getelementptr inbounds %"class.Json::OurReader::Token", ptr %74, i32 0, i32 2
  %76 = load ptr, ptr %75, align 8
  %77 = icmp ne ptr %73, %76
  br i1 %77, label %82, label %78

78:                                               ; preds = %72
  %79 = load i32, ptr %14, align 4
  %80 = load i32, ptr %11, align 4
  %81 = icmp ugt i32 %79, %80
  br i1 %81, label %82, label %86

82:                                               ; preds = %78, %72, %68
  %83 = load ptr, ptr %6, align 8
  %84 = load ptr, ptr %7, align 8
  %85 = call noundef zeroext i1 @_ZN4Json9OurReader12decodeDoubleERNS0_5TokenERNS_5ValueE(ptr noundef nonnull align 8 dereferenceable(297) %19, ptr noundef nonnull align 8 dereferenceable(24) %83, ptr noundef nonnull align 8 dereferenceable(40) %84)
  store i1 %85, ptr %4, align 1
  br label %122

86:                                               ; preds = %78
  br label %87

87:                                               ; preds = %86, %61
  %88 = load i64, ptr %12, align 8
  %89 = mul i64 %88, 10
  %90 = load i32, ptr %14, align 4
  %91 = zext i32 %90 to i64
  %92 = add i64 %89, %91
  store i64 %92, ptr %12, align 8
  br label %40, !llvm.loop !46

93:                                               ; preds = %40
  %94 = load i8, ptr %9, align 1
  %95 = trunc i8 %94 to i1
  br i1 %95, label %96, label %109

96:                                               ; preds = %93
  %97 = load i64, ptr %12, align 8
  %98 = urem i64 %97, 10
  %99 = trunc i64 %98 to i32
  store i32 %99, ptr %15, align 4
  %100 = load i64, ptr %12, align 8
  %101 = udiv i64 %100, 10
  %102 = sub nsw i64 0, %101
  %103 = mul nsw i64 %102, 10
  %104 = load i32, ptr %15, align 4
  %105 = zext i32 %104 to i64
  %106 = sub nsw i64 %103, %105
  call void @_ZN4Json5ValueC1El(ptr noundef nonnull align 8 dereferenceable(40) %16, i64 noundef %106)
  %107 = load ptr, ptr %7, align 8
  %108 = call noundef nonnull align 8 dereferenceable(40) ptr @_ZN4Json5ValueaSEOS0_(ptr noundef nonnull align 8 dereferenceable(40) %107, ptr noundef nonnull align 8 dereferenceable(40) %16) #3
  call void @_ZN4Json5ValueD1Ev(ptr noundef nonnull align 8 dereferenceable(40) %16) #3
  br label %121

109:                                              ; preds = %93
  %110 = load i64, ptr %12, align 8
  %111 = icmp ule i64 %110, 9223372036854775807
  br i1 %111, label %112, label %116

112:                                              ; preds = %109
  %113 = load i64, ptr %12, align 8
  call void @_ZN4Json5ValueC1El(ptr noundef nonnull align 8 dereferenceable(40) %17, i64 noundef %113)
  %114 = load ptr, ptr %7, align 8
  %115 = call noundef nonnull align 8 dereferenceable(40) ptr @_ZN4Json5ValueaSEOS0_(ptr noundef nonnull align 8 dereferenceable(40) %114, ptr noundef nonnull align 8 dereferenceable(40) %17) #3
  call void @_ZN4Json5ValueD1Ev(ptr noundef nonnull align 8 dereferenceable(40) %17) #3
  br label %120

116:                                              ; preds = %109
  %117 = load i64, ptr %12, align 8
  call void @_ZN4Json5ValueC1Em(ptr noundef nonnull align 8 dereferenceable(40) %18, i64 noundef %117)
  %118 = load ptr, ptr %7, align 8
  %119 = call noundef nonnull align 8 dereferenceable(40) ptr @_ZN4Json5ValueaSEOS0_(ptr noundef nonnull align 8 dereferenceable(40) %118, ptr noundef nonnull align 8 dereferenceable(40) %18) #3
  call void @_ZN4Json5ValueD1Ev(ptr noundef nonnull align 8 dereferenceable(40) %18) #3
  br label %120

120:                                              ; preds = %116, %112
  br label %121

121:                                              ; preds = %120, %96
  store i1 true, ptr %4, align 1
  br label %122

122:                                              ; preds = %121, %82, %57
  %123 = load i1, ptr %4, align 1
  ret i1 %123
}