; Function Attrs: mustprogress uwtable
define dso_local noundef zeroext i1 @_ZN4Json9OurReader12decodeNumberERNS0_5TokenERNS_5ValueE(ptr noundef nonnull align 8 dereferenceable(297) %0, ptr nocapture noundef nonnull readonly align 8 dereferenceable(24) %1, ptr noundef nonnull align 8 dereferenceable(40) %2) local_unnamed_addr #6 align 2 {
  %4 = alloca %"class.Json::Value", align 8
  %5 = alloca %"class.Json::Value", align 8
  %6 = alloca %"class.Json::Value", align 8
  %7 = getelementptr inbounds i8, ptr %1, i64 8
  %8 = load ptr, ptr %7, align 8
  %9 = load i8, ptr %8, align 1
  %10 = icmp eq i8 %9, 45
  %11 = select i1 %10, i32 8, i32 5
  %12 = select i1 %10, i64 922337203685477580, i64 1844674407370955161
  %.039.idx = zext i1 %10 to i64
  %.039 = getelementptr inbounds i8, ptr %8, i64 %.039.idx
  %13 = getelementptr inbounds i8, ptr %1, i64 16
  %14 = load ptr, ptr %13, align 8
  %15 = icmp ult ptr %.039, %14
  br i1 %15, label %.lr.ph, label %._crit_edge.thread

.lr.ph:                                           ; preds = %3, %29
  %.040.fr52 = phi i64 [ %32, %29 ], [ 0, %3 ]
  %.151 = phi ptr [ %16, %29 ], [ %.039, %3 ]
  %16 = getelementptr inbounds i8, ptr %.151, i64 1
  %17 = load i8, ptr %.151, align 1
  %.fr54 = freeze i8 %17
  %18 = add i8 %.fr54, -58
  %or.cond = icmp ult i8 %18, -10
  br i1 %or.cond, label %19, label %21

19:                                               ; preds = %.lr.ph
  %20 = tail call noundef zeroext i1 @_ZN4Json9OurReader12decodeDoubleERNS0_5TokenERNS_5ValueE(ptr noundef nonnull align 8 dereferenceable(297) %0, ptr noundef nonnull align 8 dereferenceable(24) %1, ptr noundef nonnull align 8 dereferenceable(40) %2)
  br label %42

21:                                               ; preds = %.lr.ph
  %22 = zext nneg i8 %.fr54 to i32
  %23 = add nsw i32 %22, -48
  %.not = icmp ult i64 %.040.fr52, %12
  br i1 %.not, label %29, label %24

24:                                               ; preds = %21
  %25 = icmp ugt i64 %.040.fr52, %12
  %.not44 = icmp ne ptr %16, %14
  %or.cond45.not48 = select i1 %25, i1 true, i1 %.not44
  %26 = icmp ugt i32 %23, %11
  %or.cond46 = select i1 %or.cond45.not48, i1 true, i1 %26
  br i1 %or.cond46, label %27, label %29

27:                                               ; preds = %24
  %28 = tail call noundef zeroext i1 @_ZN4Json9OurReader12decodeDoubleERNS0_5TokenERNS_5ValueE(ptr noundef nonnull align 8 dereferenceable(297) %0, ptr noundef nonnull align 8 dereferenceable(24) %1, ptr noundef nonnull align 8 dereferenceable(40) %2)
  br label %42

29:                                               ; preds = %24, %21
  %30 = mul i64 %.040.fr52, 10
  %31 = zext nneg i32 %23 to i64
  %32 = add i64 %30, %31
  %33 = icmp ult ptr %16, %14
  br i1 %33, label %.lr.ph, label %._crit_edge, !llvm.loop !305

._crit_edge:                                      ; preds = %29
  br i1 %10, label %34, label %37

._crit_edge.thread:                               ; preds = %3
  br i1 %10, label %34, label %.thread

34:                                               ; preds = %._crit_edge.thread, %._crit_edge
  %.040.fr.lcssa56 = phi i64 [ 0, %._crit_edge.thread ], [ %32, %._crit_edge ]
  %35 = sub i64 0, %.040.fr.lcssa56
  call void @_ZN4Json5ValueC1El(ptr noundef nonnull align 8 dereferenceable(40) %4, i64 noundef %35)
  %36 = call noundef nonnull align 8 dereferenceable(40) ptr @_ZN4Json5ValueaSEOS0_(ptr noundef nonnull align 8 dereferenceable(40) %2, ptr noundef nonnull align 8 dereferenceable(40) %4) #25
  call void @_ZN4Json5ValueD1Ev(ptr noundef nonnull align 8 dereferenceable(40) %4) #25
  br label %42

37:                                               ; preds = %._crit_edge
  %38 = icmp sgt i64 %32, -1
  br i1 %38, label %.thread, label %40

.thread:                                          ; preds = %._crit_edge.thread, %37
  %.040.fr.lcssa5759 = phi i64 [ %32, %37 ], [ 0, %._crit_edge.thread ]
  call void @_ZN4Json5ValueC1El(ptr noundef nonnull align 8 dereferenceable(40) %5, i64 noundef %.040.fr.lcssa5759)
  %39 = call noundef nonnull align 8 dereferenceable(40) ptr @_ZN4Json5ValueaSEOS0_(ptr noundef nonnull align 8 dereferenceable(40) %2, ptr noundef nonnull align 8 dereferenceable(40) %5) #25
  call void @_ZN4Json5ValueD1Ev(ptr noundef nonnull align 8 dereferenceable(40) %5) #25
  br label %42

40:                                               ; preds = %37
  call void @_ZN4Json5ValueC1Em(ptr noundef nonnull align 8 dereferenceable(40) %6, i64 noundef %32)
  %41 = call noundef nonnull align 8 dereferenceable(40) ptr @_ZN4Json5ValueaSEOS0_(ptr noundef nonnull align 8 dereferenceable(40) %2, ptr noundef nonnull align 8 dereferenceable(40) %6) #25
  call void @_ZN4Json5ValueD1Ev(ptr noundef nonnull align 8 dereferenceable(40) %6) #25
  br label %42

42:                                               ; preds = %34, %40, %.thread, %27, %19
  %.0 = phi i1 [ %20, %19 ], [ %28, %27 ], [ true, %.thread ], [ true, %40 ], [ true, %34 ]
  ret i1 %.0
}